; ModuleID = '43/1071.c'
source_filename = "43/1071.c"
target datalayout = "e-m:e-p270:32:32-p271:32:32-p272:64:64-i64:64-f80:128-n8:16:32:64-S128"
target triple = "x86_64-pc-linux-gnu"

@.str = private unnamed_addr constant [3 x i8] c"%d\00", align 1
@.str.1 = private unnamed_addr constant [7 x i8] c"%d %d\0A\00", align 1

; Function Attrs: noinline nounwind uwtable
define dso_local i32 @main() #0 {
  %1 = alloca i32, align 4
  %2 = alloca i32, align 4
  %3 = alloca i32, align 4
  %4 = alloca i32, align 4
  %5 = alloca i32, align 4
  %6 = alloca i32, align 4
  %7 = alloca i32, align 4
  store i32 0, i32* %1, align 4
  store i32 1, i32* %7, align 4
  %8 = call i32 (i8*, ...) @__isoc99_scanf(i8* getelementptr inbounds ([3 x i8], [3 x i8]* @.str, i64 0, i64 0), i32* %2)
  store i32 3, i32* %3, align 4
  br label %9

9:                                                ; preds = %64, %0
  %10 = load i32, i32* %3, align 4
  %11 = load i32, i32* %2, align 4
  %12 = sdiv i32 %11, 2
  %13 = icmp sle i32 %10, %12
  br i1 %13, label %14, label %67

14:                                               ; preds = %9
  store i32 2, i32* %4, align 4
  br label %15

15:                                               ; preds = %27, %14
  %16 = load i32, i32* %4, align 4
  %17 = load i32, i32* %3, align 4
  %18 = icmp slt i32 %16, %17
  br i1 %18, label %19, label %30

19:                                               ; preds = %15
  %20 = load i32, i32* %3, align 4
  %21 = load i32, i32* %4, align 4
  %22 = srem i32 %20, %21
  store i32 %22, i32* %6, align 4
  %23 = load i32, i32* %6, align 4
  %24 = icmp eq i32 %23, 0
  br i1 %24, label %25, label %26

25:                                               ; preds = %19
  store i32 0, i32* %7, align 4
  br label %26

26:                                               ; preds = %25, %19
  br label %27

27:                                               ; preds = %26
  %28 = load i32, i32* %4, align 4
  %29 = add nsw i32 %28, 1
  store i32 %29, i32* %4, align 4
  br label %15

30:                                               ; preds = %15
  %31 = load i32, i32* %7, align 4
  %32 = icmp ne i32 %31, 0
  br i1 %32, label %33, label %63

33:                                               ; preds = %30
  store i32 2, i32* %5, align 4
  br label %34

34:                                               ; preds = %50, %33
  %35 = load i32, i32* %5, align 4
  %36 = load i32, i32* %2, align 4
  %37 = load i32, i32* %3, align 4
  %38 = sub nsw i32 %36, %37
  %39 = icmp slt i32 %35, %38
  br i1 %39, label %40, label %53

40:                                               ; preds = %34
  %41 = load i32, i32* %2, align 4
  %42 = load i32, i32* %3, align 4
  %43 = sub nsw i32 %41, %42
  %44 = load i32, i32* %5, align 4
  %45 = srem i32 %43, %44
  store i32 %45, i32* %6, align 4
  %46 = load i32, i32* %6, align 4
  %47 = icmp eq i32 %46, 0
  br i1 %47, label %48, label %49

48:                                               ; preds = %40
  store i32 0, i32* %7, align 4
  br label %49

49:                                               ; preds = %48, %40
  br label %50

50:                                               ; preds = %49
  %51 = load i32, i32* %5, align 4
  %52 = add nsw i32 %51, 1
  store i32 %52, i32* %5, align 4
  br label %34

53:                                               ; preds = %34
  %54 = load i32, i32* %7, align 4
  %55 = icmp ne i32 %54, 0
  br i1 %55, label %56, label %62

56:                                               ; preds = %53
  %57 = load i32, i32* %3, align 4
  %58 = load i32, i32* %2, align 4
  %59 = load i32, i32* %3, align 4
  %60 = sub nsw i32 %58, %59
  %61 = call i32 (i8*, ...) @printf(i8* getelementptr inbounds ([7 x i8], [7 x i8]* @.str.1, i64 0, i64 0), i32 %57, i32 %60)
  br label %62

62:                                               ; preds = %56, %53
  br label %63

63:                                               ; preds = %62, %30
  store i32 1, i32* %7, align 4
  br label %64

64:                                               ; preds = %63
  %65 = load i32, i32* %3, align 4
  %66 = add nsw i32 %65, 2
  store i32 %66, i32* %3, align 4
  br label %9

67:                                               ; preds = %9
  ret i32 0
}

declare dso_local i32 @__isoc99_scanf(i8*, ...) #1

declare dso_local i32 @printf(i8*, ...) #1


!llvm.module.flags = !{!0}
!llvm.ident = !{!1}

!0 = !{i32 1, !"wchar_size", i32 4}
!1 = !{!"clang version 10.0.0-4ubuntu1 "}
